target datalayout = "e-m:e-p270:32:32-p271:32:32-p272:64:64-i64:64-i128:128-f80:128-n8:16:32:64-S128"
target triple = "x86_64-pc-linux-gnu"

%struct.dt_import_metadata_t = type { ptr, ptr, ptr, ptr, ptr }

@.str.7 = private unnamed_addr constant [36 x i8] c"plugins/lighttable/metadata/%s_flag\00", align 1
@.str.8 = private unnamed_addr constant [23 x i8] c"ui_last/import_last_%s\00", align 1
@.str.12 = private unnamed_addr constant [25 x i8] c"ui_last/import_last_tags\00", align 1
@.str.14 = private unnamed_addr constant [34 x i8] c"ui_last/import_last_tags_imported\00", align 1

; Function Attrs: nounwind uwtable
define void @dt_import_metadata_update(ptr noundef %0) #0 {
  %2 = alloca ptr, align 8
  %3 = alloca i32, align 4
  %4 = alloca ptr, align 8
  %5 = alloca ptr, align 8
  %6 = alloca ptr, align 8
  %7 = alloca ptr, align 8
  %8 = alloca i32, align 4
  %9 = alloca ptr, align 8
  %10 = alloca ptr, align 8
  %11 = alloca i32, align 4
  store ptr %0, ptr %2, align 8, !tbaa !6
  call void @llvm.lifetime.start.p0(i64 4, ptr %3) #7
  store i32 0, ptr %3, align 4, !tbaa !61
  br label %12

12:                                               ; preds = %66, %1
  %13 = load i32, ptr %3, align 4, !tbaa !61
  %14 = icmp ult i32 %13, 9
  br i1 %14, label %16, label %15

15:                                               ; preds = %12
  call void @llvm.lifetime.end.p0(i64 4, ptr %3) #7
  br label %69

16:                                               ; preds = %12
  call void @llvm.lifetime.start.p0(i64 8, ptr %4) #7
  %17 = load ptr, ptr %2, align 8, !tbaa !6
  %18 = getelementptr inbounds nuw %struct.dt_import_metadata_t, ptr %17, i32 0, i32 2
  %19 = load ptr, ptr %18, align 8, !tbaa !13
  %20 = call i64 @gtk_grid_get_type() #8
  %21 = call ptr @g_type_check_instance_cast(ptr noundef %19, i64 noundef %20)
  %22 = load i32, ptr %3, align 4, !tbaa !61
  %23 = add i32 %22, 1
  %24 = call ptr @gtk_grid_get_child_at(ptr noundef %21, i32 noundef 1, i32 noundef %23)
  store ptr %24, ptr %4, align 8, !tbaa !11
  call void @llvm.lifetime.start.p0(i64 8, ptr %5) #7
  %25 = load i32, ptr %3, align 4, !tbaa !61
  %26 = call ptr @dt_metadata_get_name_by_display_order(i32 noundef %25)
  store ptr %26, ptr %5, align 8, !tbaa !65
  call void @llvm.lifetime.start.p0(i64 8, ptr %6) #7
  %27 = load ptr, ptr %5, align 8, !tbaa !65
  %28 = call noalias ptr (ptr, ...) @g_strdup_printf(ptr noundef @.str.8, ptr noundef %27)
  store ptr %28, ptr %6, align 8, !tbaa !65
  call void @llvm.lifetime.start.p0(i64 8, ptr %7) #7
  %29 = load ptr, ptr %6, align 8, !tbaa !65
  %30 = call ptr @dt_conf_get_string_const(ptr noundef %29)
  store ptr %30, ptr %7, align 8, !tbaa !65
  %31 = load ptr, ptr %4, align 8, !tbaa !11
  %32 = load ptr, ptr %2, align 8, !tbaa !6
  %33 = call i32 @g_signal_handlers_block_matched(ptr noundef %31, i32 noundef 24, i32 noundef 0, i32 noundef 0, ptr noundef null, ptr noundef @_import_metadata_changed, ptr noundef %32)
  %34 = load ptr, ptr %4, align 8, !tbaa !11
  %35 = call i64 @gtk_entry_get_type() #8
  %36 = call ptr @g_type_check_instance_cast(ptr noundef %34, i64 noundef %35)
  %37 = load ptr, ptr %7, align 8, !tbaa !65
  call void @gtk_entry_set_text(ptr noundef %36, ptr noundef %37)
  %38 = load ptr, ptr %4, align 8, !tbaa !11
  %39 = load ptr, ptr %2, align 8, !tbaa !6
  %40 = call i32 @g_signal_handlers_unblock_matched(ptr noundef %38, i32 noundef 24, i32 noundef 0, i32 noundef 0, ptr noundef null, ptr noundef @_import_metadata_changed, ptr noundef %39)
  %41 = load ptr, ptr %6, align 8, !tbaa !65
  call void @g_free(ptr noundef %41)
  %42 = load ptr, ptr %2, align 8, !tbaa !6
  %43 = getelementptr inbounds nuw %struct.dt_import_metadata_t, ptr %42, i32 0, i32 2
  %44 = load ptr, ptr %43, align 8, !tbaa !13
  %45 = call i64 @gtk_grid_get_type() #8
  %46 = call ptr @g_type_check_instance_cast(ptr noundef %44, i64 noundef %45)
  %47 = load i32, ptr %3, align 4, !tbaa !61
  %48 = add i32 %47, 1
  %49 = call ptr @gtk_grid_get_child_at(ptr noundef %46, i32 noundef 2, i32 noundef %48)
  store ptr %49, ptr %4, align 8, !tbaa !11
  %50 = load ptr, ptr %5, align 8, !tbaa !65
  %51 = call noalias ptr (ptr, ...) @g_strdup_printf(ptr noundef @.str.7, ptr noundef %50)
  store ptr %51, ptr %6, align 8, !tbaa !65
  call void @llvm.lifetime.start.p0(i64 4, ptr %8) #7
  %52 = load ptr, ptr %6, align 8, !tbaa !65
  %53 = call i32 @dt_conf_get_int(ptr noundef %52)
  store i32 %53, ptr %8, align 4, !tbaa !61
  %54 = load ptr, ptr %4, align 8, !tbaa !11
  %55 = load ptr, ptr %2, align 8, !tbaa !6
  %56 = call i32 @g_signal_handlers_block_matched(ptr noundef %54, i32 noundef 24, i32 noundef 0, i32 noundef 0, ptr noundef null, ptr noundef @_import_metadata_toggled, ptr noundef %55)
  %57 = load ptr, ptr %4, align 8, !tbaa !11
  %58 = call i64 @gtk_toggle_button_get_type() #8
  %59 = call ptr @g_type_check_instance_cast(ptr noundef %57, i64 noundef %58)
  %60 = load i32, ptr %8, align 4, !tbaa !61
  %61 = and i32 %60, 4
  call void @gtk_toggle_button_set_active(ptr noundef %59, i32 noundef %61)
  %62 = load ptr, ptr %4, align 8, !tbaa !11
  %63 = load ptr, ptr %2, align 8, !tbaa !6
  %64 = call i32 @g_signal_handlers_unblock_matched(ptr noundef %62, i32 noundef 24, i32 noundef 0, i32 noundef 0, ptr noundef null, ptr noundef @_import_metadata_toggled, ptr noundef %63)
  %65 = load ptr, ptr %6, align 8, !tbaa !65
  call void @g_free(ptr noundef %65)
  call void @llvm.lifetime.end.p0(i64 4, ptr %8) #7
  call void @llvm.lifetime.end.p0(i64 8, ptr %7) #7
  call void @llvm.lifetime.end.p0(i64 8, ptr %6) #7
  call void @llvm.lifetime.end.p0(i64 8, ptr %5) #7
  call void @llvm.lifetime.end.p0(i64 8, ptr %4) #7
  br label %66

66:                                               ; preds = %16
  %67 = load i32, ptr %3, align 4, !tbaa !61
  %68 = add i32 %67, 1
  store i32 %68, ptr %3, align 4, !tbaa !61
  br label %12

69:                                               ; preds = %15
  call void @llvm.lifetime.start.p0(i64 8, ptr %9) #7
  %70 = load ptr, ptr %2, align 8, !tbaa !6
  %71 = getelementptr inbounds nuw %struct.dt_import_metadata_t, ptr %70, i32 0, i32 2
  %72 = load ptr, ptr %71, align 8, !tbaa !13
  %73 = call i64 @gtk_grid_get_type() #8
  %74 = call ptr @g_type_check_instance_cast(ptr noundef %72, i64 noundef %73)
  %75 = call ptr @gtk_grid_get_child_at(ptr noundef %74, i32 noundef 1, i32 noundef 11)
  store ptr %75, ptr %9, align 8, !tbaa !11
  call void @llvm.lifetime.start.p0(i64 8, ptr %10) #7
  %76 = call ptr @dt_conf_get_string_const(ptr noundef @.str.12)
  store ptr %76, ptr %10, align 8, !tbaa !65
  %77 = load ptr, ptr %9, align 8, !tbaa !11
  %78 = load ptr, ptr %2, align 8, !tbaa !6
  %79 = call i32 @g_signal_handlers_block_matched(ptr noundef %77, i32 noundef 24, i32 noundef 0, i32 noundef 0, ptr noundef null, ptr noundef @_import_tags_changed, ptr noundef %78)
  %80 = load ptr, ptr %9, align 8, !tbaa !11
  %81 = call i64 @gtk_entry_get_type() #8
  %82 = call ptr @g_type_check_instance_cast(ptr noundef %80, i64 noundef %81)
  %83 = load ptr, ptr %10, align 8, !tbaa !65
  call void @gtk_entry_set_text(ptr noundef %82, ptr noundef %83)
  %84 = load ptr, ptr %9, align 8, !tbaa !11
  %85 = load ptr, ptr %2, align 8, !tbaa !6
  %86 = call i32 @g_signal_handlers_unblock_matched(ptr noundef %84, i32 noundef 24, i32 noundef 0, i32 noundef 0, ptr noundef null, ptr noundef @_import_tags_changed, ptr noundef %85)
  %87 = load ptr, ptr %2, align 8, !tbaa !6
  %88 = getelementptr inbounds nuw %struct.dt_import_metadata_t, ptr %87, i32 0, i32 2
  %89 = load ptr, ptr %88, align 8, !tbaa !13
  %90 = call i64 @gtk_grid_get_type() #8
  %91 = call ptr @g_type_check_instance_cast(ptr noundef %89, i64 noundef %90)
  %92 = call ptr @gtk_grid_get_child_at(ptr noundef %91, i32 noundef 2, i32 noundef 11)
  store ptr %92, ptr %9, align 8, !tbaa !11
  call void @llvm.lifetime.start.p0(i64 4, ptr %11) #7
  %93 = call i32 @dt_conf_get_bool(ptr noundef @.str.14)
  store i32 %93, ptr %11, align 4, !tbaa !61
  %94 = load ptr, ptr %9, align 8, !tbaa !11
  %95 = load ptr, ptr %2, align 8, !tbaa !6
  %96 = call i32 @g_signal_handlers_block_matched(ptr noundef %94, i32 noundef 24, i32 noundef 0, i32 noundef 0, ptr noundef null, ptr noundef @_import_metadata_toggled, ptr noundef %95)
  %97 = load ptr, ptr %9, align 8, !tbaa !11
  %98 = call i64 @gtk_toggle_button_get_type() #8
  %99 = call ptr @g_type_check_instance_cast(ptr noundef %97, i64 noundef %98)
  %100 = load i32, ptr %11, align 4, !tbaa !61
  call void @gtk_toggle_button_set_active(ptr noundef %99, i32 noundef %100)
  %101 = load ptr, ptr %9, align 8, !tbaa !11
  %102 = load ptr, ptr %2, align 8, !tbaa !6
  %103 = call i32 @g_signal_handlers_unblock_matched(ptr noundef %101, i32 noundef 24, i32 noundef 0, i32 noundef 0, ptr noundef null, ptr noundef @_import_metadata_toggled, ptr noundef %102)
  %104 = load ptr, ptr %2, align 8, !tbaa !6
  %105 = getelementptr inbounds nuw %struct.dt_import_metadata_t, ptr %104, i32 0, i32 2
  %106 = load ptr, ptr %105, align 8, !tbaa !13
  %107 = call i64 @gtk_grid_get_type() #8
  %108 = call ptr @g_type_check_instance_cast(ptr noundef %106, i64 noundef %107)
  %109 = call ptr @gtk_grid_get_child_at(ptr noundef %108, i32 noundef 1, i32 noundef 0)
  store ptr %109, ptr %9, align 8, !tbaa !11
  %110 = load ptr, ptr %9, align 8, !tbaa !11
  %111 = call i64 @gtk_combo_box_get_type() #8
  %112 = call ptr @g_type_check_instance_cast(ptr noundef %110, i64 noundef %111)
  call void @gtk_combo_box_set_active(ptr noundef %112, i32 noundef -1)
  %113 = load ptr, ptr %2, align 8, !tbaa !6
  %114 = getelementptr inbounds nuw %struct.dt_import_metadata_t, ptr %113, i32 0, i32 2
  %115 = load ptr, ptr %114, align 8, !tbaa !13
  %116 = call i64 @gtk_grid_get_type() #8
  %117 = call ptr @g_type_check_instance_cast(ptr noundef %115, i64 noundef %116)
  %118 = call ptr @gtk_grid_get_child_at(ptr noundef %117, i32 noundef 1, i32 noundef 10)
  store ptr %118, ptr %9, align 8, !tbaa !11
  %119 = load ptr, ptr %9, align 8, !tbaa !11
  %120 = call i64 @gtk_combo_box_get_type() #8
  %121 = call ptr @g_type_check_instance_cast(ptr noundef %119, i64 noundef %120)
  call void @gtk_combo_box_set_active(ptr noundef %121, i32 noundef -1)
  call void @llvm.lifetime.end.p0(i64 4, ptr %11) #7
  call void @llvm.lifetime.end.p0(i64 8, ptr %10) #7
  call void @llvm.lifetime.end.p0(i64 8, ptr %9) #7
  ret void
}