; Function Attrs: nounwind uwtable
define void @dt_import_metadata_update(ptr noundef %0) local_unnamed_addr #0 {
  %2 = getelementptr inbounds nuw i8, ptr %0, i64 16
  %3 = tail call i64 @gtk_grid_get_type() #11
  br label %28

4:                                                ; preds = %28
  %5 = load ptr, ptr %2, align 8, !tbaa !6
  %6 = tail call ptr @g_type_check_instance_cast(ptr noundef %5, i64 noundef %3) #10
  %7 = tail call ptr @gtk_grid_get_child_at(ptr noundef %6, i32 noundef 1, i32 noundef 11) #10
  %8 = tail call ptr @dt_conf_get_string_const(ptr noundef nonnull @.str.12) #10
  %9 = tail call i32 @g_signal_handlers_block_matched(ptr noundef %7, i32 noundef 24, i32 noundef 0, i32 noundef 0, ptr noundef null, ptr noundef nonnull @_import_tags_changed, ptr noundef nonnull %0) #10
  %10 = tail call ptr @g_type_check_instance_cast(ptr noundef %7, i64 noundef %37) #10
  tail call void @gtk_entry_set_text(ptr noundef %10, ptr noundef %8) #10
  %11 = tail call i32 @g_signal_handlers_unblock_matched(ptr noundef %7, i32 noundef 24, i32 noundef 0, i32 noundef 0, ptr noundef null, ptr noundef nonnull @_import_tags_changed, ptr noundef nonnull %0) #10
  %12 = load ptr, ptr %2, align 8, !tbaa !6
  %13 = tail call ptr @g_type_check_instance_cast(ptr noundef %12, i64 noundef %3) #10
  %14 = tail call ptr @gtk_grid_get_child_at(ptr noundef %13, i32 noundef 2, i32 noundef 11) #10
  %15 = tail call i32 @dt_conf_get_bool(ptr noundef nonnull @.str.14) #10
  %16 = tail call i32 @g_signal_handlers_block_matched(ptr noundef %14, i32 noundef 24, i32 noundef 0, i32 noundef 0, ptr noundef null, ptr noundef nonnull @_import_metadata_toggled, ptr noundef nonnull %0) #10
  %17 = tail call ptr @g_type_check_instance_cast(ptr noundef %14, i64 noundef %46) #10
  tail call void @gtk_toggle_button_set_active(ptr noundef %17, i32 noundef %15) #10
  %18 = tail call i32 @g_signal_handlers_unblock_matched(ptr noundef %14, i32 noundef 24, i32 noundef 0, i32 noundef 0, ptr noundef null, ptr noundef nonnull @_import_metadata_toggled, ptr noundef nonnull %0) #10
  %19 = load ptr, ptr %2, align 8, !tbaa !6
  %20 = tail call ptr @g_type_check_instance_cast(ptr noundef %19, i64 noundef %3) #10
  %21 = tail call ptr @gtk_grid_get_child_at(ptr noundef %20, i32 noundef 1, i32 noundef 0) #10
  %22 = tail call i64 @gtk_combo_box_get_type() #11
  %23 = tail call ptr @g_type_check_instance_cast(ptr noundef %21, i64 noundef %22) #10
  tail call void @gtk_combo_box_set_active(ptr noundef %23, i32 noundef -1) #10
  %24 = load ptr, ptr %2, align 8, !tbaa !6
  %25 = tail call ptr @g_type_check_instance_cast(ptr noundef %24, i64 noundef %3) #10
  %26 = tail call ptr @gtk_grid_get_child_at(ptr noundef %25, i32 noundef 1, i32 noundef 10) #10
  %27 = tail call ptr @g_type_check_instance_cast(ptr noundef %26, i64 noundef %22) #10
  tail call void @gtk_combo_box_set_active(ptr noundef %27, i32 noundef -1) #10
  ret void

28:                                               ; preds = %1, %28
  %.042 = phi i32 [ 0, %1 ], [ %31, %28 ]
  %29 = load ptr, ptr %2, align 8, !tbaa !6
  %30 = tail call ptr @g_type_check_instance_cast(ptr noundef %29, i64 noundef %3) #10
  %31 = add nuw nsw i32 %.042, 1
  %32 = tail call ptr @gtk_grid_get_child_at(ptr noundef %30, i32 noundef 1, i32 noundef %31) #10
  %33 = tail call ptr @dt_metadata_get_name_by_display_order(i32 noundef %.042) #10
  %34 = tail call noalias ptr (ptr, ...) @g_strdup_printf(ptr noundef nonnull @.str.8, ptr noundef %33) #10
  %35 = tail call ptr @dt_conf_get_string_const(ptr noundef %34) #10
  %36 = tail call i32 @g_signal_handlers_block_matched(ptr noundef %32, i32 noundef 24, i32 noundef 0, i32 noundef 0, ptr noundef null, ptr noundef nonnull @_import_metadata_changed, ptr noundef %0) #10
  %37 = tail call i64 @gtk_entry_get_type() #11
  %38 = tail call ptr @g_type_check_instance_cast(ptr noundef %32, i64 noundef %37) #10
  tail call void @gtk_entry_set_text(ptr noundef %38, ptr noundef %35) #10
  %39 = tail call i32 @g_signal_handlers_unblock_matched(ptr noundef %32, i32 noundef 24, i32 noundef 0, i32 noundef 0, ptr noundef null, ptr noundef nonnull @_import_metadata_changed, ptr noundef %0) #10
  tail call void @g_free(ptr noundef %34) #10
  %40 = load ptr, ptr %2, align 8, !tbaa !6
  %41 = tail call ptr @g_type_check_instance_cast(ptr noundef %40, i64 noundef %3) #10
  %42 = tail call ptr @gtk_grid_get_child_at(ptr noundef %41, i32 noundef 2, i32 noundef %31) #10
  %43 = tail call noalias ptr (ptr, ...) @g_strdup_printf(ptr noundef nonnull @.str.7, ptr noundef %33) #10
  %44 = tail call i32 @dt_conf_get_int(ptr noundef %43) #10
  %45 = tail call i32 @g_signal_handlers_block_matched(ptr noundef %42, i32 noundef 24, i32 noundef 0, i32 noundef 0, ptr noundef null, ptr noundef nonnull @_import_metadata_toggled, ptr noundef %0) #10
  %46 = tail call i64 @gtk_toggle_button_get_type() #11
  %47 = tail call ptr @g_type_check_instance_cast(ptr noundef %42, i64 noundef %46) #10
  %48 = and i32 %44, 4
  tail call void @gtk_toggle_button_set_active(ptr noundef %47, i32 noundef %48) #10
  %49 = tail call i32 @g_signal_handlers_unblock_matched(ptr noundef %42, i32 noundef 24, i32 noundef 0, i32 noundef 0, ptr noundef null, ptr noundef nonnull @_import_metadata_toggled, ptr noundef %0) #10
  tail call void @g_free(ptr noundef %43) #10
  %exitcond.not = icmp eq i32 %31, 9
  br i1 %exitcond.not, label %4, label %28
}